target datalayout = "e-m:e-p270:32:32-p271:32:32-p272:64:64-i64:64-i128:128-f80:128-n8:16:32:64-S128"
target triple = "x86_64-pc-linux-gnu"

%struct.JNINativeInterface_ = type { ptr, ptr, ptr, ptr, ptr, ptr, ptr, ptr, ptr, ptr, ptr, ptr, ptr, ptr, ptr, ptr, ptr, ptr, ptr, ptr, ptr, ptr, ptr, ptr, ptr, ptr, ptr, ptr, ptr, ptr, ptr, ptr, ptr, ptr, ptr, ptr, ptr, ptr, ptr, ptr, ptr, ptr, ptr, ptr, ptr, ptr, ptr, ptr, ptr, ptr, ptr, ptr, ptr, ptr, ptr, ptr, ptr, ptr, ptr, ptr, ptr, ptr, ptr, ptr, ptr, ptr, ptr, ptr, ptr, ptr, ptr, ptr, ptr, ptr, ptr, ptr, ptr, ptr, ptr, ptr, ptr, ptr, ptr, ptr, ptr, ptr, ptr, ptr, ptr, ptr, ptr, ptr, ptr, ptr, ptr, ptr, ptr, ptr, ptr, ptr, ptr, ptr, ptr, ptr, ptr, ptr, ptr, ptr, ptr, ptr, ptr, ptr, ptr, ptr, ptr, ptr, ptr, ptr, ptr, ptr, ptr, ptr, ptr, ptr, ptr, ptr, ptr, ptr, ptr, ptr, ptr, ptr, ptr, ptr, ptr, ptr, ptr, ptr, ptr, ptr, ptr, ptr, ptr, ptr, ptr, ptr, ptr, ptr, ptr, ptr, ptr, ptr, ptr, ptr, ptr, ptr, ptr, ptr, ptr, ptr, ptr, ptr, ptr, ptr, ptr, ptr, ptr, ptr, ptr, ptr, ptr, ptr, ptr, ptr, ptr, ptr, ptr, ptr, ptr, ptr, ptr, ptr, ptr, ptr, ptr, ptr, ptr, ptr, ptr, ptr, ptr, ptr, ptr, ptr, ptr, ptr, ptr, ptr, ptr, ptr, ptr, ptr, ptr, ptr, ptr, ptr, ptr, ptr, ptr, ptr, ptr, ptr, ptr, ptr, ptr, ptr, ptr, ptr, ptr, ptr, ptr, ptr, ptr, ptr, ptr, ptr, ptr, ptr, ptr, ptr, ptr, ptr, ptr, ptr, ptr }
%struct.NotifyListNode = type { i64, ptr, ptr }

@notifyListHead = hidden global ptr null, align 8
@notifyListLock = hidden global ptr null, align 8

; Function Attrs: nounwind uwtable
define hidden void @putNotifyEntry(ptr noundef %0, i64 noundef %1, ptr noundef %2) #0 {
  %4 = alloca ptr, align 8
  %5 = alloca i64, align 8
  %6 = alloca ptr, align 8
  %7 = alloca ptr, align 8
  %8 = alloca ptr, align 8
  store ptr %0, ptr %4, align 8
  store i64 %1, ptr %5, align 8
  store ptr %2, ptr %6, align 8
  %9 = load ptr, ptr %6, align 8
  %10 = icmp eq ptr %9, null
  br i1 %10, label %11, label %12

11:                                               ; preds = %3
  br label %61

12:                                               ; preds = %3
  %13 = call noalias ptr @malloc(i64 noundef 24) #4
  store ptr %13, ptr %8, align 8
  %14 = load ptr, ptr %8, align 8
  %15 = icmp eq ptr %14, null
  br i1 %15, label %16, label %18

16:                                               ; preds = %12
  %17 = load ptr, ptr %4, align 8
  call void @p11ThrowOutOfMemoryError(ptr noundef %17, ptr noundef null)
  br label %61

18:                                               ; preds = %12
  %19 = load i64, ptr %5, align 8
  %20 = load ptr, ptr %8, align 8
  %21 = getelementptr inbounds %struct.NotifyListNode, ptr %20, i32 0, i32 0
  store i64 %19, ptr %21, align 8
  %22 = load ptr, ptr %6, align 8
  %23 = load ptr, ptr %8, align 8
  %24 = getelementptr inbounds %struct.NotifyListNode, ptr %23, i32 0, i32 1
  store ptr %22, ptr %24, align 8
  %25 = load ptr, ptr %8, align 8
  %26 = getelementptr inbounds %struct.NotifyListNode, ptr %25, i32 0, i32 2
  store ptr null, ptr %26, align 8
  %27 = load ptr, ptr %4, align 8
  %28 = load ptr, ptr %27, align 8
  %29 = getelementptr inbounds %struct.JNINativeInterface_, ptr %28, i32 0, i32 217
  %30 = load ptr, ptr %29, align 8
  %31 = load ptr, ptr %4, align 8
  %32 = load ptr, ptr @notifyListLock, align 8
  %33 = call i32 %30(ptr noundef %31, ptr noundef %32)
  %34 = load ptr, ptr @notifyListHead, align 8
  %35 = icmp eq ptr %34, null
  br i1 %35, label %36, label %38

36:                                               ; preds = %18
  %37 = load ptr, ptr %8, align 8
  store ptr %37, ptr @notifyListHead, align 8
  br label %53

38:                                               ; preds = %18
  %39 = load ptr, ptr @notifyListHead, align 8
  store ptr %39, ptr %7, align 8
  br label %40

40:                                               ; preds = %45, %38
  %41 = load ptr, ptr %7, align 8
  %42 = getelementptr inbounds %struct.NotifyListNode, ptr %41, i32 0, i32 2
  %43 = load ptr, ptr %42, align 8
  %44 = icmp ne ptr %43, null
  br i1 %44, label %45, label %49

45:                                               ; preds = %40
  %46 = load ptr, ptr %7, align 8
  %47 = getelementptr inbounds %struct.NotifyListNode, ptr %46, i32 0, i32 2
  %48 = load ptr, ptr %47, align 8
  store ptr %48, ptr %7, align 8
  br label %40, !llvm.loop !6

49:                                               ; preds = %40
  %50 = load ptr, ptr %8, align 8
  %51 = load ptr, ptr %7, align 8
  %52 = getelementptr inbounds %struct.NotifyListNode, ptr %51, i32 0, i32 2
  store ptr %50, ptr %52, align 8
  br label %53

53:                                               ; preds = %49, %36
  %54 = load ptr, ptr %4, align 8
  %55 = load ptr, ptr %54, align 8
  %56 = getelementptr inbounds %struct.JNINativeInterface_, ptr %55, i32 0, i32 218
  %57 = load ptr, ptr %56, align 8
  %58 = load ptr, ptr %4, align 8
  %59 = load ptr, ptr @notifyListLock, align 8
  %60 = call i32 %57(ptr noundef %58, ptr noundef %59)
  br label %61

61:                                               ; preds = %53, %16, %11
  ret void
}