; Function Attrs: nounwind uwtable
define hidden void @putNotifyEntry(ptr noundef %0, i64 noundef %1, ptr noundef %2) local_unnamed_addr #0 {
  %4 = icmp eq ptr %2, null
  br i1 %4, label %29, label %5

5:                                                ; preds = %3
  %6 = tail call noalias dereferenceable_or_null(24) ptr @malloc(i64 noundef 24) #5
  %7 = icmp eq ptr %6, null
  br i1 %7, label %8, label %9

8:                                                ; preds = %5
  tail call void @p11ThrowOutOfMemoryError(ptr noundef %0, ptr noundef null) #4
  br label %29

9:                                                ; preds = %5
  store i64 %1, ptr %6, align 8
  %10 = getelementptr inbounds i8, ptr %6, i64 8
  store ptr %2, ptr %10, align 8
  %11 = getelementptr inbounds i8, ptr %6, i64 16
  store ptr null, ptr %11, align 8
  %12 = load ptr, ptr %0, align 8
  %13 = getelementptr inbounds i8, ptr %12, i64 1736
  %14 = load ptr, ptr %13, align 8
  %15 = load ptr, ptr @notifyListLock, align 8
  %16 = tail call i32 %14(ptr noundef nonnull %0, ptr noundef %15) #4
  %17 = load ptr, ptr @notifyListHead, align 8
  %18 = icmp eq ptr %17, null
  br i1 %18, label %23, label %.preheader

.preheader:                                       ; preds = %9, %.preheader
  %.0 = phi ptr [ %20, %.preheader ], [ %17, %9 ]
  %19 = getelementptr inbounds i8, ptr %.0, i64 16
  %20 = load ptr, ptr %19, align 8
  %.not = icmp eq ptr %20, null
  br i1 %.not, label %21, label %.preheader, !llvm.loop !6

21:                                               ; preds = %.preheader
  %22 = getelementptr inbounds i8, ptr %.0, i64 16
  br label %23

23:                                               ; preds = %9, %21
  %.sink = phi ptr [ %22, %21 ], [ @notifyListHead, %9 ]
  store ptr %6, ptr %.sink, align 8
  %24 = load ptr, ptr %0, align 8
  %25 = getelementptr inbounds i8, ptr %24, i64 1744
  %26 = load ptr, ptr %25, align 8
  %27 = load ptr, ptr @notifyListLock, align 8
  %28 = tail call i32 %26(ptr noundef nonnull %0, ptr noundef %27) #4
  br label %29

29:                                               ; preds = %3, %23, %8
  ret void
}